; ModuleID = '49/46.c'
source_filename = "49/46.c"
target datalayout = "e-m:e-p270:32:32-p271:32:32-p272:64:64-i64:64-f80:128-n8:16:32:64-S128"
target triple = "x86_64-pc-linux-gnu"

@.str = private unnamed_addr constant [4 x i8] c"%s\0A\00", align 1

; Function Attrs: noinline nounwind uwtable
define dso_local void @main() #0 {
  %1 = alloca i32, align 4
  %2 = alloca i32, align 4
  %3 = alloca i32, align 4
  %4 = alloca i32, align 4
  %5 = alloca i32, align 4
  %6 = alloca [500 x i8], align 16
  %7 = alloca [500 x i8], align 16
  %8 = alloca [500 x i8], align 16
  %9 = alloca [500 x i8], align 16
  %10 = alloca [500 x i8], align 16
  %11 = getelementptr inbounds [500 x i8], [500 x i8]* %6, i64 0, i64 0
  %12 = call i32 (i8*, ...) bitcast (i32 (...)* @gets to i32 (i8*, ...)*)(i8* %11)
  %13 = getelementptr inbounds [500 x i8], [500 x i8]* %6, i64 0, i64 0
  %14 = call i64 @strlen(i8* %13) #4
  %15 = trunc i64 %14 to i32
  store i32 %15, i32* %3, align 4
  store i32 2, i32* %1, align 4
  br label %16

16:                                               ; preds = %71, %0
  %17 = load i32, i32* %1, align 4
  %18 = load i32, i32* %3, align 4
  %19 = icmp sle i32 %17, %18
  br i1 %19, label %20, label %74

20:                                               ; preds = %16
  store i32 0, i32* %2, align 4
  br label %21

21:                                               ; preds = %67, %20
  %22 = load i32, i32* %2, align 4
  %23 = load i32, i32* %3, align 4
  %24 = load i32, i32* %1, align 4
  %25 = sub nsw i32 %23, %24
  %26 = icmp sle i32 %22, %25
  br i1 %26, label %27, label %70

27:                                               ; preds = %21
  %28 = bitcast [500 x i8]* %9 to i8*
  call void @llvm.memset.p0i8.i64(i8* align 16 %28, i8 0, i64 500, i1 false)
  %29 = bitcast [500 x i8]* %10 to i8*
  call void @llvm.memset.p0i8.i64(i8* align 16 %29, i8 0, i64 500, i1 false)
  %30 = load i32, i32* %2, align 4
  store i32 %30, i32* %4, align 4
  store i32 0, i32* %5, align 4
  br label %31

31:                                               ; preds = %53, %27
  %32 = load i32, i32* %5, align 4
  %33 = load i32, i32* %1, align 4
  %34 = icmp slt i32 %32, %33
  br i1 %34, label %35, label %58

35:                                               ; preds = %31
  %36 = load i32, i32* %4, align 4
  %37 = sext i32 %36 to i64
  %38 = getelementptr inbounds [500 x i8], [500 x i8]* %6, i64 0, i64 %37
  %39 = load i8, i8* %38, align 1
  %40 = load i32, i32* %5, align 4
  %41 = sext i32 %40 to i64
  %42 = getelementptr inbounds [500 x i8], [500 x i8]* %9, i64 0, i64 %41
  store i8 %39, i8* %42, align 1
  %43 = load i32, i32* %4, align 4
  %44 = sext i32 %43 to i64
  %45 = getelementptr inbounds [500 x i8], [500 x i8]* %6, i64 0, i64 %44
  %46 = load i8, i8* %45, align 1
  %47 = load i32, i32* %1, align 4
  %48 = load i32, i32* %5, align 4
  %49 = sub nsw i32 %47, %48
  %50 = sub nsw i32 %49, 1
  %51 = sext i32 %50 to i64
  %52 = getelementptr inbounds [500 x i8], [500 x i8]* %10, i64 0, i64 %51
  store i8 %46, i8* %52, align 1
  br label %53

53:                                               ; preds = %35
  %54 = load i32, i32* %4, align 4
  %55 = add nsw i32 %54, 1
  store i32 %55, i32* %4, align 4
  %56 = load i32, i32* %5, align 4
  %57 = add nsw i32 %56, 1
  store i32 %57, i32* %5, align 4
  br label %31

58:                                               ; preds = %31
  %59 = getelementptr inbounds [500 x i8], [500 x i8]* %9, i64 0, i64 0
  %60 = getelementptr inbounds [500 x i8], [500 x i8]* %10, i64 0, i64 0
  %61 = call i32 @strcmp(i8* %59, i8* %60) #4
  %62 = icmp eq i32 %61, 0
  br i1 %62, label %63, label %66

63:                                               ; preds = %58
  %64 = getelementptr inbounds [500 x i8], [500 x i8]* %9, i64 0, i64 0
  %65 = call i32 (i8*, ...) @printf(i8* getelementptr inbounds ([4 x i8], [4 x i8]* @.str, i64 0, i64 0), i8* %64)
  br label %66

66:                                               ; preds = %63, %58
  br label %67

67:                                               ; preds = %66
  %68 = load i32, i32* %2, align 4
  %69 = add nsw i32 %68, 1
  store i32 %69, i32* %2, align 4
  br label %21

70:                                               ; preds = %21
  br label %71

71:                                               ; preds = %70
  %72 = load i32, i32* %1, align 4
  %73 = add nsw i32 %72, 1
  store i32 %73, i32* %1, align 4
  br label %16

74:                                               ; preds = %16
  ret void
}

declare dso_local i32 @gets(...) #1

; Function Attrs: nounwind readonly
declare dso_local i64 @strlen(i8*) #2

; Function Attrs: argmemonly nounwind willreturn
declare void @llvm.memset.p0i8.i64(i8* nocapture writeonly, i8, i64, i1 immarg) #3

; Function Attrs: nounwind readonly
declare dso_local i32 @strcmp(i8*, i8*) #2

declare dso_local i32 @printf(i8*, ...) #1


!llvm.module.flags = !{!0}
!llvm.ident = !{!1}

!0 = !{i32 1, !"wchar_size", i32 4}
!1 = !{!"clang version 10.0.0-4ubuntu1 "}
